target datalayout = "e-m:e-p270:32:32-p271:32:32-p272:64:64-i64:64-i128:128-f80:128-n8:16:32:64-S128"
target triple = "x86_64-pc-linux-gnu"

%struct.except_id_t = type { i64, i64 }
%struct.except_stacknode = type { ptr, i32, %union.anon }
%union.anon = type { ptr }
%struct.except_catch = type { ptr, i64, %struct.except_t, [1 x %struct.__jmp_buf_tag] }
%struct.except_t = type { %struct.except_id_t, ptr, ptr }
%struct.__jmp_buf_tag = type { [8 x i64], i32, %struct.__sigset_t }
%struct.__sigset_t = type { [16 x i64] }

@hf_nas_eps_ciphered_msg = internal global i32 0, align 4
@hf_nas_eps_nas_msg_cont = internal global i32 0, align 4
@ett_nas_eps_nas_msg_cont = internal global i32 0, align 4
@gsm_a_dtap_handle = internal global ptr null, align 8
@de_emm_nas_msg_cont.catch_spec = internal constant [1 x %struct.except_id_t] [%struct.except_id_t { i64 1, i64 0 }], align 16

; Function Attrs: null_pointer_is_valid sspstrong uwtable
define internal zeroext i16 @de_emm_nas_msg_cont(ptr noundef %0, ptr noundef %1, ptr noundef %2, i32 noundef %3, i32 noundef %4, ptr noundef %5, i32 noundef %6) #1 {
  %8 = alloca ptr, align 8
  %9 = alloca ptr, align 8
  %10 = alloca ptr, align 8
  %11 = alloca i32, align 4
  %12 = alloca i32, align 4
  %13 = alloca ptr, align 8
  %14 = alloca i32, align 4
  %15 = alloca ptr, align 8
  %16 = alloca ptr, align 8
  %17 = alloca ptr, align 8
  %18 = alloca i32, align 4
  %19 = alloca ptr, align 8
  %20 = alloca i32, align 4
  %21 = alloca %struct.except_stacknode, align 8
  %22 = alloca %struct.except_catch, align 8
  store ptr %0, ptr %8, align 8
  store ptr %1, ptr %9, align 8
  store ptr %2, ptr %10, align 8
  store i32 %3, ptr %11, align 4
  store i32 %4, ptr %12, align 4
  store ptr %5, ptr %13, align 8
  store i32 %6, ptr %14, align 4
  call void @llvm.lifetime.start.p0(i64 8, ptr %15) #10
  call void @llvm.lifetime.start.p0(i64 8, ptr %16) #10
  call void @llvm.lifetime.start.p0(i64 8, ptr %17) #10
  call void @llvm.lifetime.start.p0(i64 4, ptr %18) #10
  %23 = load i32, ptr %11, align 4
  store i32 %23, ptr %18, align 4
  %24 = load ptr, ptr %9, align 8
  %25 = load i32, ptr @hf_nas_eps_nas_msg_cont, align 4
  %26 = load ptr, ptr %8, align 8
  %27 = load i32, ptr %18, align 4
  %28 = load i32, ptr %12, align 4
  %29 = call ptr @proto_tree_add_item(ptr noundef %24, i32 noundef %25, ptr noundef %26, i32 noundef %27, i32 noundef %28, i32 noundef 0)
  store ptr %29, ptr %15, align 8
  %30 = load ptr, ptr %15, align 8
  %31 = load i32, ptr @ett_nas_eps_nas_msg_cont, align 4
  %32 = call ptr @proto_item_add_subtree(ptr noundef %30, i32 noundef %31)
  store ptr %32, ptr %16, align 8
  %33 = load ptr, ptr %8, align 8
  %34 = load i32, ptr %18, align 4
  %35 = load i32, ptr %12, align 4
  %36 = call ptr @tvb_new_subset_length(ptr noundef %33, i32 noundef %34, i32 noundef %35)
  store ptr %36, ptr %17, align 8
  %37 = load ptr, ptr @gsm_a_dtap_handle, align 8
  %38 = icmp ne ptr %37, null
  br i1 %38, label %39, label %157

39:                                               ; preds = %7
  %40 = load ptr, ptr %8, align 8
  %41 = call zeroext i8 @tvb_get_bits8(ptr noundef %40, i32 noundef 0, i32 noundef 4)
  %42 = zext i8 %41 to i32
  %43 = icmp eq i32 %42, 5
  br i1 %43, label %44, label %150

44:                                               ; preds = %39
  %45 = load ptr, ptr %17, align 8
  %46 = call zeroext i8 @tvb_get_bits8(ptr noundef %45, i32 noundef 4, i32 noundef 4)
  %47 = zext i8 %46 to i32
  %48 = icmp ne i32 %47, 9
  br i1 %48, label %49, label %55

49:                                               ; preds = %44
  %50 = load ptr, ptr %16, align 8
  %51 = load i32, ptr @hf_nas_eps_ciphered_msg, align 4
  %52 = load ptr, ptr %17, align 8
  %53 = load i32, ptr %12, align 4
  %54 = call ptr @proto_tree_add_item(ptr noundef %50, i32 noundef %51, ptr noundef %52, i32 noundef 0, i32 noundef %53, i32 noundef 0)
  br label %149

55:                                               ; preds = %44
  call void @llvm.lifetime.start.p0(i64 8, ptr %19) #10
  call void @llvm.lifetime.start.p0(i64 4, ptr %20) #10
  store volatile i32 0, ptr %20, align 4
  call void @llvm.lifetime.start.p0(i64 24, ptr %21) #10
  call void @llvm.lifetime.start.p0(i64 248, ptr %22) #10
  call void @except_setup_try(ptr noundef %21, ptr noundef %22, ptr noundef @de_emm_nas_msg_cont.catch_spec, i64 noundef 1)
  %56 = getelementptr inbounds nuw %struct.except_catch, ptr %22, i32 0, i32 3
  %57 = getelementptr inbounds [1 x %struct.__jmp_buf_tag], ptr %56, i64 0, i64 0
  %58 = call i32 @_setjmp(ptr noundef %57) #11
  %59 = icmp ne i32 %58, 0
  br i1 %59, label %60, label %62

60:                                               ; preds = %55
  %61 = getelementptr inbounds nuw %struct.except_catch, ptr %22, i32 0, i32 2
  store volatile ptr %61, ptr %19, align 8
  br label %63

62:                                               ; preds = %55
  store volatile ptr null, ptr %19, align 8
  br label %63

63:                                               ; preds = %62, %60
  %64 = load volatile i32, ptr %20, align 4
  %65 = and i32 %64, 1
  %66 = icmp ne i32 %65, 0
  br i1 %66, label %67, label %70

67:                                               ; preds = %63
  %68 = load volatile i32, ptr %20, align 4
  %69 = or i32 %68, 2
  store volatile i32 %69, ptr %20, align 4
  br label %70

70:                                               ; preds = %67, %63
  %71 = load volatile i32, ptr %20, align 4
  %72 = and i32 %71, -2
  store volatile i32 %72, ptr %20, align 4
  %73 = load volatile i32, ptr %20, align 4
  %74 = icmp eq i32 %73, 0
  br i1 %74, label %75, label %84

75:                                               ; preds = %70
  %76 = load volatile ptr, ptr %19, align 8
  %77 = icmp eq ptr %76, null
  br i1 %77, label %78, label %84

78:                                               ; preds = %75
  %79 = load ptr, ptr @gsm_a_dtap_handle, align 8
  %80 = load ptr, ptr %17, align 8
  %81 = load ptr, ptr %10, align 8
  %82 = load ptr, ptr %16, align 8
  %83 = call i32 @call_dissector(ptr noundef %79, ptr noundef %80, ptr noundef %81, ptr noundef %82)
  br label %84

84:                                               ; preds = %78, %75, %70
  %85 = load volatile i32, ptr %20, align 4
  %86 = icmp eq i32 %85, 0
  br i1 %86, label %87, label %135

87:                                               ; preds = %84
  %88 = load volatile ptr, ptr %19, align 8
  %89 = icmp ne ptr %88, null
  br i1 %89, label %90, label %135

90:                                               ; preds = %87
  %91 = load volatile ptr, ptr %19, align 8
  %92 = getelementptr inbounds nuw %struct.except_t, ptr %91, i32 0, i32 0
  %93 = getelementptr inbounds nuw %struct.except_id_t, ptr %92, i32 0, i32 1
  %94 = load volatile i64, ptr %93, align 8
  %95 = icmp eq i64 %94, 1
  br i1 %95, label %120, label %96

96:                                               ; preds = %90
  %97 = load volatile ptr, ptr %19, align 8
  %98 = getelementptr inbounds nuw %struct.except_t, ptr %97, i32 0, i32 0
  %99 = getelementptr inbounds nuw %struct.except_id_t, ptr %98, i32 0, i32 1
  %100 = load volatile i64, ptr %99, align 8
  %101 = icmp eq i64 %100, 4
  br i1 %101, label %120, label %102

102:                                              ; preds = %96
  %103 = load volatile ptr, ptr %19, align 8
  %104 = getelementptr inbounds nuw %struct.except_t, ptr %103, i32 0, i32 0
  %105 = getelementptr inbounds nuw %struct.except_id_t, ptr %104, i32 0, i32 1
  %106 = load volatile i64, ptr %105, align 8
  %107 = icmp eq i64 %106, 3
  br i1 %107, label %120, label %108

108:                                              ; preds = %102
  %109 = load volatile ptr, ptr %19, align 8
  %110 = getelementptr inbounds nuw %struct.except_t, ptr %109, i32 0, i32 0
  %111 = getelementptr inbounds nuw %struct.except_id_t, ptr %110, i32 0, i32 1
  %112 = load volatile i64, ptr %111, align 8
  %113 = icmp eq i64 %112, 2
  br i1 %113, label %120, label %114

114:                                              ; preds = %108
  %115 = load volatile ptr, ptr %19, align 8
  %116 = getelementptr inbounds nuw %struct.except_t, ptr %115, i32 0, i32 0
  %117 = getelementptr inbounds nuw %struct.except_id_t, ptr %116, i32 0, i32 1
  %118 = load volatile i64, ptr %117, align 8
  %119 = icmp eq i64 %118, 7
  br i1 %119, label %120, label %135

120:                                              ; preds = %114, %108, %102, %96, %90
  %121 = load volatile i32, ptr %20, align 4
  %122 = or i32 %121, 1
  store volatile i32 %122, ptr %20, align 4
  %123 = icmp ne i32 %122, 0
  br i1 %123, label %124, label %135

124:                                              ; preds = %120
  %125 = load ptr, ptr %17, align 8
  %126 = load ptr, ptr %10, align 8
  %127 = load ptr, ptr %16, align 8
  %128 = load volatile ptr, ptr %19, align 8
  %129 = getelementptr inbounds nuw %struct.except_t, ptr %128, i32 0, i32 0
  %130 = getelementptr inbounds nuw %struct.except_id_t, ptr %129, i32 0, i32 1
  %131 = load volatile i64, ptr %130, align 8
  %132 = load volatile ptr, ptr %19, align 8
  %133 = getelementptr inbounds nuw %struct.except_t, ptr %132, i32 0, i32 1
  %134 = load volatile ptr, ptr %133, align 8
  call void @show_exception(ptr noundef %125, ptr noundef %126, ptr noundef %127, i64 noundef %131, ptr noundef %134)
  br label %135

135:                                              ; preds = %124, %120, %114, %87, %84
  %136 = load volatile i32, ptr %20, align 4
  %137 = and i32 %136, 1
  %138 = icmp ne i32 %137, 0
  br i1 %138, label %144, label %139

139:                                              ; preds = %135
  %140 = load volatile ptr, ptr %19, align 8
  %141 = icmp ne ptr %140, null
  br i1 %141, label %142, label %144

142:                                              ; preds = %139
  %143 = load volatile ptr, ptr %19, align 8
  call void @except_rethrow(ptr noundef %143) #12
  unreachable

144:                                              ; preds = %139, %135
  %145 = getelementptr inbounds nuw %struct.except_catch, ptr %22, i32 0, i32 2
  %146 = getelementptr inbounds nuw %struct.except_t, ptr %145, i32 0, i32 2
  %147 = load volatile ptr, ptr %146, align 8
  call void @except_free(ptr noundef %147)
  %148 = call ptr @except_pop()
  call void @llvm.lifetime.end.p0(i64 248, ptr %22) #10
  call void @llvm.lifetime.end.p0(i64 24, ptr %21) #10
  call void @llvm.lifetime.end.p0(i64 4, ptr %20) #10
  call void @llvm.lifetime.end.p0(i64 8, ptr %19) #10
  br label %149

149:                                              ; preds = %144, %49
  br label %156

150:                                              ; preds = %39
  %151 = load ptr, ptr @gsm_a_dtap_handle, align 8
  %152 = load ptr, ptr %17, align 8
  %153 = load ptr, ptr %10, align 8
  %154 = load ptr, ptr %16, align 8
  %155 = call i32 @call_dissector(ptr noundef %151, ptr noundef %152, ptr noundef %153, ptr noundef %154)
  br label %156

156:                                              ; preds = %150, %149
  br label %157

157:                                              ; preds = %156, %7
  %158 = load i32, ptr %12, align 4
  %159 = trunc i32 %158 to i16
  call void @llvm.lifetime.end.p0(i64 4, ptr %18) #10
  call void @llvm.lifetime.end.p0(i64 8, ptr %17) #10
  call void @llvm.lifetime.end.p0(i64 8, ptr %16) #10
  call void @llvm.lifetime.end.p0(i64 8, ptr %15) #10
  ret i16 %159
}