; Function Attrs: null_pointer_is_valid sspstrong uwtable
define internal noundef zeroext i16 @de_emm_nas_msg_cont(ptr noundef %0, ptr noundef %1, ptr noundef %2, i32 noundef %3, i32 noundef %4, ptr readnone captures(none) %5, i32 %6) #1 {
  %8 = alloca ptr, align 8
  %9 = alloca i32, align 4
  %10 = alloca %struct.except_stacknode, align 8
  %11 = alloca %struct.except_catch, align 8
  %12 = load i32, ptr @hf_nas_eps_nas_msg_cont, align 4
  %13 = call ptr @proto_tree_add_item(ptr noundef %1, i32 noundef %12, ptr noundef %0, i32 noundef %3, i32 noundef %4, i32 noundef 0)
  %14 = load i32, ptr @ett_nas_eps_nas_msg_cont, align 4
  %15 = call ptr @proto_item_add_subtree(ptr noundef %13, i32 noundef %14)
  %16 = call ptr @tvb_new_subset_length(ptr noundef %0, i32 noundef %3, i32 noundef %4)
  %17 = load ptr, ptr @gsm_a_dtap_handle, align 8
  %.not = icmp eq ptr %17, null
  br i1 %.not, label %81, label %18

18:                                               ; preds = %7
  %19 = call zeroext i8 @tvb_get_bits8(ptr noundef %0, i32 noundef 0, i32 noundef 4)
  %20 = icmp eq i8 %19, 5
  br i1 %20, label %21, label %78

21:                                               ; preds = %18
  %22 = call zeroext i8 @tvb_get_bits8(ptr noundef %16, i32 noundef 4, i32 noundef 4)
  %.not41 = icmp eq i8 %22, 9
  br i1 %.not41, label %26, label %23

23:                                               ; preds = %21
  %24 = load i32, ptr @hf_nas_eps_ciphered_msg, align 4
  %25 = call ptr @proto_tree_add_item(ptr noundef %15, i32 noundef %24, ptr noundef %16, i32 noundef 0, i32 noundef %4, i32 noundef 0)
  br label %81

26:                                               ; preds = %21
  call void @llvm.lifetime.start.p0(i64 8, ptr nonnull %8)
  call void @llvm.lifetime.start.p0(i64 4, ptr nonnull %9)
  store volatile i32 0, ptr %9, align 4
  call void @llvm.lifetime.start.p0(i64 24, ptr nonnull %10) #10
  call void @llvm.lifetime.start.p0(i64 248, ptr nonnull %11) #10
  call void @except_setup_try(ptr noundef nonnull %10, ptr noundef nonnull %11, ptr noundef nonnull @de_emm_nas_msg_cont.catch_spec, i64 noundef 1)
  %27 = getelementptr inbounds nuw i8, ptr %11, i64 48
  %28 = call i32 @_setjmp(ptr noundef nonnull %27) #11
  %.not42 = icmp eq i32 %28, 0
  %29 = getelementptr inbounds nuw i8, ptr %11, i64 16
  %.sink = select i1 %.not42, ptr null, ptr %29
  store volatile ptr %.sink, ptr %8, align 8
  %.0..0..0..0. = load volatile i32, ptr %9, align 4
  %30 = and i32 %.0..0..0..0., 1
  %.not43 = icmp eq i32 %30, 0
  br i1 %.not43, label %33, label %31

31:                                               ; preds = %26
  %.0..0..0..0.1 = load volatile i32, ptr %9, align 4
  %32 = or i32 %.0..0..0..0.1, 2
  store volatile i32 %32, ptr %9, align 4
  br label %33

33:                                               ; preds = %31, %26
  %.0..0..0..0.2 = load volatile i32, ptr %9, align 4
  %34 = and i32 %.0..0..0..0.2, -2
  store volatile i32 %34, ptr %9, align 4
  %.0..0..0..0.3 = load volatile i32, ptr %9, align 4
  %35 = icmp eq i32 %.0..0..0..0.3, 0
  br i1 %35, label %36, label %41

36:                                               ; preds = %33
  %.0..0..0..0.7 = load volatile ptr, ptr %8, align 8
  %37 = icmp eq ptr %.0..0..0..0.7, null
  br i1 %37, label %38, label %41

38:                                               ; preds = %36
  %39 = load ptr, ptr @gsm_a_dtap_handle, align 8
  %40 = call i32 @call_dissector(ptr noundef %39, ptr noundef %16, ptr noundef %2, ptr noundef %15)
  br label %41

41:                                               ; preds = %38, %36, %33
  %.0..0..0..0.4 = load volatile i32, ptr %9, align 4
  %42 = icmp eq i32 %.0..0..0..0.4, 0
  br i1 %42, label %43, label %70

43:                                               ; preds = %41
  %.0..0..0..0.8 = load volatile ptr, ptr %8, align 8
  %.not44 = icmp eq ptr %.0..0..0..0.8, null
  br i1 %.not44, label %70, label %44

44:                                               ; preds = %43
  %.0..0..0..0.9 = load volatile ptr, ptr %8, align 8
  %45 = getelementptr inbounds nuw i8, ptr %.0..0..0..0.9, i64 8
  %46 = load volatile i64, ptr %45, align 8
  %47 = icmp eq i64 %46, 1
  br i1 %47, label %64, label %48

48:                                               ; preds = %44
  %.0..0..0..0.10 = load volatile ptr, ptr %8, align 8
  %49 = getelementptr inbounds nuw i8, ptr %.0..0..0..0.10, i64 8
  %50 = load volatile i64, ptr %49, align 8
  %51 = icmp eq i64 %50, 4
  br i1 %51, label %64, label %52

52:                                               ; preds = %48
  %.0..0..0..0.11 = load volatile ptr, ptr %8, align 8
  %53 = getelementptr inbounds nuw i8, ptr %.0..0..0..0.11, i64 8
  %54 = load volatile i64, ptr %53, align 8
  %55 = icmp eq i64 %54, 3
  br i1 %55, label %64, label %56

56:                                               ; preds = %52
  %.0..0..0..0.12 = load volatile ptr, ptr %8, align 8
  %57 = getelementptr inbounds nuw i8, ptr %.0..0..0..0.12, i64 8
  %58 = load volatile i64, ptr %57, align 8
  %59 = icmp eq i64 %58, 2
  br i1 %59, label %64, label %60

60:                                               ; preds = %56
  %.0..0..0..0.13 = load volatile ptr, ptr %8, align 8
  %61 = getelementptr inbounds nuw i8, ptr %.0..0..0..0.13, i64 8
  %62 = load volatile i64, ptr %61, align 8
  %63 = icmp eq i64 %62, 7
  br i1 %63, label %64, label %70

64:                                               ; preds = %60, %56, %52, %48, %44
  %.0..0..0..0.5 = load volatile i32, ptr %9, align 4
  %65 = or i32 %.0..0..0..0.5, 1
  store volatile i32 %65, ptr %9, align 4
  %.0..0..0..0.14 = load volatile ptr, ptr %8, align 8
  %66 = getelementptr inbounds nuw i8, ptr %.0..0..0..0.14, i64 8
  %67 = load volatile i64, ptr %66, align 8
  %.0..0..0..0.15 = load volatile ptr, ptr %8, align 8
  %68 = getelementptr inbounds nuw i8, ptr %.0..0..0..0.15, i64 16
  %69 = load volatile ptr, ptr %68, align 8
  call void @show_exception(ptr noundef %16, ptr noundef %2, ptr noundef %15, i64 noundef %67, ptr noundef %69)
  br label %70

70:                                               ; preds = %64, %60, %43, %41
  %.0..0..0..0.6 = load volatile i32, ptr %9, align 4
  %71 = and i32 %.0..0..0..0.6, 1
  %.not45 = icmp eq i32 %71, 0
  br i1 %.not45, label %72, label %74

72:                                               ; preds = %70
  %.0..0..0..0.16 = load volatile ptr, ptr %8, align 8
  %.not46 = icmp eq ptr %.0..0..0..0.16, null
  br i1 %.not46, label %74, label %73

73:                                               ; preds = %72
  %.0..0..0..0.17 = load volatile ptr, ptr %8, align 8
  call void @except_rethrow(ptr noundef %.0..0..0..0.17) #12
  unreachable

74:                                               ; preds = %72, %70
  %75 = getelementptr inbounds nuw i8, ptr %11, i64 40
  %76 = load volatile ptr, ptr %75, align 8
  call void @except_free(ptr noundef %76)
  %77 = call ptr @except_pop()
  call void @llvm.lifetime.end.p0(i64 248, ptr nonnull %11) #10
  call void @llvm.lifetime.end.p0(i64 24, ptr nonnull %10) #10
  call void @llvm.lifetime.end.p0(i64 4, ptr nonnull %9)
  call void @llvm.lifetime.end.p0(i64 8, ptr nonnull %8)
  br label %81

78:                                               ; preds = %18
  %79 = load ptr, ptr @gsm_a_dtap_handle, align 8
  %80 = call i32 @call_dissector(ptr noundef %79, ptr noundef %16, ptr noundef %2, ptr noundef %15)
  br label %81

81:                                               ; preds = %78, %74, %23, %7
  %82 = trunc i32 %4 to i16
  ret i16 %82
}